target datalayout = "e-m:e-p270:32:32-p271:32:32-p272:64:64-i64:64-i128:128-f80:128-n8:16:32:64-S128"
target triple = "x86_64-unknown-linux-gnu"

%struct.QTailQLink = type { ptr, ptr }
%struct.BlockDriverState = type { i32, i8, i8, i8, i8, i8, ptr, ptr, ptr, %struct.anon.0, i8, [4096 x i8], [4096 x i8], [4096 x i8], [16 x i8], ptr, [4096 x i8], %struct.BlockLimits, i32, i32, i32, i32, [32 x i8], %union.anon.1, %union.anon.2, %union.anon.3, i32, [16 x %struct.anon.4], ptr, %struct.anon.5, ptr, ptr, %struct.anon.6, ptr, ptr, i32, ptr, i64, i64, %struct.QemuMutex, %struct.anon.7, %struct.Stat64, i32, i32, i32, i32, i32, i32, %struct.QemuMutex, %struct.anon.8, %struct.CoQueue, i8, i32, i8, %struct.CoMutex, ptr, ptr }
%struct.anon.0 = type { ptr }
%struct.BlockLimits = type { i32, i64, i32, i64, i32, i32, i32, i64, i32, i64, i64, i32, i8, i32, i32, i32, i32, i32, i32, i32 }
%union.anon.1 = type { %struct.QTailQLink }
%union.anon.2 = type { %struct.QTailQLink }
%union.anon.3 = type { %struct.QTailQLink }
%struct.anon.4 = type { ptr }
%struct.anon.5 = type { ptr }
%struct.anon.6 = type { ptr }
%struct.anon.7 = type { ptr }
%struct.Stat64 = type { i64 }
%struct.QemuMutex = type { %union.pthread_mutex_t, i8 }
%union.pthread_mutex_t = type { %struct.__pthread_mutex_s }
%struct.__pthread_mutex_s = type { i32, i32, i32, i32, i32, i16, i16, %struct.__pthread_internal_list }
%struct.__pthread_internal_list = type { ptr, ptr }
%struct.anon.8 = type { ptr }
%struct.CoQueue = type { %struct.anon.9 }
%struct.anon.9 = type { ptr, ptr }
%struct.CoMutex = type { i32, ptr, %struct.anon.10, %struct.anon.10, i32, i32, ptr }
%struct.anon.10 = type { ptr }
%struct.BDRVParallelsState = type { %struct.CoMutex, ptr, i32, i8, ptr, i32, ptr, i64, ptr, i32, i64, i64, i64, i32, i32, i32, i32, ptr }
%struct.QEMUIOVector = type { ptr, i32, %union.anon.15 }
%union.anon.15 = type { %struct.anon.16 }
%struct.anon.16 = type { i32, %struct.iovec }
%struct.iovec = type { ptr, i64 }

; Function Attrs: nounwind sspstrong uwtable
define internal i32 @parallels_co_writev(ptr noundef %bs, i64 noundef %sector_num, i32 noundef %nb_sectors, ptr noundef %qiov, i32 noundef %flags) #0 {
entry:
  %bs.addr = alloca ptr, align 8
  %sector_num.addr = alloca i64, align 8
  %nb_sectors.addr = alloca i32, align 4
  %qiov.addr = alloca ptr, align 8
  %flags.addr = alloca i32, align 4
  %s = alloca ptr, align 8
  %bytes_done = alloca i64, align 8
  %hd_qiov = alloca %struct.QEMUIOVector, align 8
  %ret = alloca i32, align 4
  %position = alloca i64, align 8
  %n = alloca i32, align 4
  %nbytes = alloca i32, align 4
  store ptr %bs, ptr %bs.addr, align 8
  store i64 %sector_num, ptr %sector_num.addr, align 8
  store i32 %nb_sectors, ptr %nb_sectors.addr, align 4
  store ptr %qiov, ptr %qiov.addr, align 8
  store i32 %flags, ptr %flags.addr, align 4
  %0 = load ptr, ptr %bs.addr, align 8
  %opaque = getelementptr inbounds %struct.BlockDriverState, ptr %0, i32 0, i32 7
  %1 = load ptr, ptr %opaque, align 8
  store ptr %1, ptr %s, align 8
  store i64 0, ptr %bytes_done, align 8
  store i32 0, ptr %ret, align 4
  %2 = load ptr, ptr %qiov.addr, align 8
  %niov = getelementptr inbounds %struct.QEMUIOVector, ptr %2, i32 0, i32 1
  %3 = load i32, ptr %niov, align 8
  call void @qemu_iovec_init(ptr noundef %hd_qiov, i32 noundef %3)
  br label %while.cond

while.cond:                                       ; preds = %if.end9, %entry
  %4 = load i32, ptr %nb_sectors.addr, align 4
  %cmp = icmp sgt i32 %4, 0
  br i1 %cmp, label %while.body, label %while.end

while.body:                                       ; preds = %while.cond
  %5 = load ptr, ptr %s, align 8
  %lock = getelementptr inbounds %struct.BDRVParallelsState, ptr %5, i32 0, i32 0
  call void @qemu_co_mutex_lock(ptr noundef %lock)
  %6 = load ptr, ptr %bs.addr, align 8
  %7 = load i64, ptr %sector_num.addr, align 8
  %8 = load i32, ptr %nb_sectors.addr, align 4
  %call = call i64 @allocate_clusters(ptr noundef %6, i64 noundef %7, i32 noundef %8, ptr noundef %n)
  store i64 %call, ptr %position, align 8
  %9 = load ptr, ptr %s, align 8
  %lock1 = getelementptr inbounds %struct.BDRVParallelsState, ptr %9, i32 0, i32 0
  call void @qemu_co_mutex_unlock(ptr noundef %lock1)
  %10 = load i64, ptr %position, align 8
  %cmp2 = icmp slt i64 %10, 0
  br i1 %cmp2, label %if.then, label %if.end

if.then:                                          ; preds = %while.body
  %11 = load i64, ptr %position, align 8
  %conv = trunc i64 %11 to i32
  store i32 %conv, ptr %ret, align 4
  br label %while.end

if.end:                                           ; preds = %while.body
  %12 = load i32, ptr %n, align 4
  %shl = shl i32 %12, 9
  store i32 %shl, ptr %nbytes, align 4
  call void @qemu_iovec_reset(ptr noundef %hd_qiov)
  %13 = load ptr, ptr %qiov.addr, align 8
  %14 = load i64, ptr %bytes_done, align 8
  %15 = load i32, ptr %nbytes, align 4
  %conv3 = sext i32 %15 to i64
  call void @qemu_iovec_concat(ptr noundef %hd_qiov, ptr noundef %13, i64 noundef %14, i64 noundef %conv3)
  %16 = load ptr, ptr %bs.addr, align 8
  %file = getelementptr inbounds %struct.BlockDriverState, ptr %16, i32 0, i32 31
  %17 = load ptr, ptr %file, align 8
  %18 = load i64, ptr %position, align 8
  %mul = mul i64 %18, 512
  %19 = load i32, ptr %nbytes, align 4
  %conv4 = sext i32 %19 to i64
  %call5 = call i32 @bdrv_co_pwritev(ptr noundef %17, i64 noundef %mul, i64 noundef %conv4, ptr noundef %hd_qiov, i32 noundef 0)
  store i32 %call5, ptr %ret, align 4
  %20 = load i32, ptr %ret, align 4
  %cmp6 = icmp slt i32 %20, 0
  br i1 %cmp6, label %if.then8, label %if.end9

if.then8:                                         ; preds = %if.end
  br label %while.end

if.end9:                                          ; preds = %if.end
  %21 = load i32, ptr %n, align 4
  %22 = load i32, ptr %nb_sectors.addr, align 4
  %sub = sub i32 %22, %21
  store i32 %sub, ptr %nb_sectors.addr, align 4
  %23 = load i32, ptr %n, align 4
  %conv10 = sext i32 %23 to i64
  %24 = load i64, ptr %sector_num.addr, align 8
  %add = add i64 %24, %conv10
  store i64 %add, ptr %sector_num.addr, align 8
  %25 = load i32, ptr %nbytes, align 4
  %conv11 = sext i32 %25 to i64
  %26 = load i64, ptr %bytes_done, align 8
  %add12 = add i64 %26, %conv11
  store i64 %add12, ptr %bytes_done, align 8
  br label %while.cond, !llvm.loop !8

while.end:                                        ; preds = %if.then8, %if.then, %while.cond
  call void @qemu_iovec_destroy(ptr noundef %hd_qiov)
  %27 = load i32, ptr %ret, align 4
  ret i32 %27
}