; Function Attrs: nounwind sspstrong uwtable
define internal i32 @parallels_co_writev(ptr noundef %bs, i64 noundef %sector_num, i32 noundef %nb_sectors, ptr noundef %qiov, i32 %flags) #0 {
entry:
  %hd_qiov = alloca %struct.QEMUIOVector, align 8
  %n = alloca i32, align 4
  %opaque = getelementptr inbounds nuw i8, ptr %bs, i64 24
  %0 = load ptr, ptr %opaque, align 8
  %niov = getelementptr inbounds nuw i8, ptr %qiov, i64 8
  %1 = load i32, ptr %niov, align 8
  call void @qemu_iovec_init(ptr noundef nonnull %hd_qiov, i32 noundef %1) #16
  %cmp14 = icmp sgt i32 %nb_sectors, 0
  br i1 %cmp14, label %while.body.lr.ph, label %while.end

while.body.lr.ph:                                 ; preds = %entry
  %file = getelementptr inbounds nuw i8, ptr %bs, i64 16840
  br label %while.body

while.body:                                       ; preds = %while.body.lr.ph, %if.end9
  %sector_num.addr.017 = phi i64 [ %sector_num, %while.body.lr.ph ], [ %add, %if.end9 ]
  %nb_sectors.addr.016 = phi i32 [ %nb_sectors, %while.body.lr.ph ], [ %sub, %if.end9 ]
  %bytes_done.015 = phi i64 [ 0, %while.body.lr.ph ], [ %add12, %if.end9 ]
  call void @qemu_co_mutex_lock(ptr noundef %0) #16
  %call = call i64 @allocate_clusters(ptr noundef nonnull %bs, i64 noundef %sector_num.addr.017, i32 noundef %nb_sectors.addr.016, ptr noundef nonnull %n)
  call void @qemu_co_mutex_unlock(ptr noundef %0) #16
  %cmp2 = icmp slt i64 %call, 0
  br i1 %cmp2, label %if.then, label %if.end

if.then:                                          ; preds = %while.body
  %conv = trunc i64 %call to i32
  br label %while.end

if.end:                                           ; preds = %while.body
  %2 = load i32, ptr %n, align 4
  %shl = shl i32 %2, 9
  call void @qemu_iovec_reset(ptr noundef nonnull %hd_qiov) #16
  %conv3 = sext i32 %shl to i64
  call void @qemu_iovec_concat(ptr noundef nonnull %hd_qiov, ptr noundef %qiov, i64 noundef %bytes_done.015, i64 noundef %conv3) #16
  %3 = load ptr, ptr %file, align 8
  %mul = shl i64 %call, 9
  %call5 = call i32 @bdrv_co_pwritev(ptr noundef %3, i64 noundef %mul, i64 noundef %conv3, ptr noundef nonnull %hd_qiov, i32 noundef 0) #16
  %cmp6 = icmp slt i32 %call5, 0
  br i1 %cmp6, label %while.end, label %if.end9

if.end9:                                          ; preds = %if.end
  %sub = sub i32 %nb_sectors.addr.016, %2
  %conv10 = sext i32 %2 to i64
  %add = add i64 %sector_num.addr.017, %conv10
  %add12 = add i64 %bytes_done.015, %conv3
  %cmp = icmp sgt i32 %sub, 0
  br i1 %cmp, label %while.body, label %while.end, !llvm.loop !9

while.end:                                        ; preds = %if.end9, %if.end, %entry, %if.then
  %ret.1 = phi i32 [ %conv, %if.then ], [ 0, %entry ], [ %call5, %if.end ], [ %call5, %if.end9 ]
  call void @qemu_iovec_destroy(ptr noundef nonnull %hd_qiov) #16
  ret i32 %ret.1
}